Certificate:
    Data:
        Version: 3 (0x2)
        Serial Number: 1 (0x1)
    Signature Algorithm: sha256WithRSAEncryption
        Issuer: C=CN, ST=hangzhou, O=EMQ, CN=RootCA
        Validity
            Not Before: Jan  8 16:02:00 2020 GMT
            Not After : Jan  7 16:02:00 2021 GMT
        Subject: C=CN, ST=hangzhou, O=EMQ, CN=Client
        Subject Public Key Info:
            Public Key Algorithm: rsaEncryption
                Public-Key: (2048 bit)
                Modulus:
                    00:a3:d2:57:fc:05:88:16:a9:05:d3:9a:db:6b:70:
                    d7:87:89:8b:fc:a9:71:49:92:50:9b:11:2c:c2:f5:
                    2c:fb:02:8a:9c:0f:f5:fb:5c:9c:7a:cb:0b:1b:3d:
                    f7:ff:37:f7:10:e1:89:66:06:3d:a0:28:0e:fc:63:
                    75:b8:c3:d5:ea:e6:6a:9f:0a:43:71:d8:33:77:c3:
                    be:f8:82:44:e7:75:15:f9:48:a9:d9:6c:76:71:0d:
                    24:43:95:54:f2:62:ab:31:95:14:4d:93:92:47:02:
                    01:af:97:62:4a:cc:f9:e4:57:30:75:d5:fb:23:41:
                    37:46:24:5c:e3:dc:fa:97:1c:46:bf:c6:4f:da:a0:
                    e3:47:84:df:5a:67:03:ea:63:e9:ef:c1:38:28:e8:
                    e1:9d:e3:b6:d4:fa:14:1f:81:79:65:4a:fe:c5:bc:
                    a3:43:22:5d:5d:a5:73:26:51:2c:6f:43:6f:30:ba:
                    8f:f1:29:6e:0a:6f:c2:7c:8c:27:c3:74:06:f4:5f:
                    ee:70:01:ad:ac:ad:1f:de:54:8f:ab:c0:c5:7e:5c:
                    11:70:82:26:9b:04:6e:79:8b:31:ac:74:d3:d0:24:
                    d7:d2:89:9f:4a:2c:93:46:05:c9:43:f6:bc:5e:d8:
                    54:fe:4b:a0:2e:70:7c:bf:84:83:c2:60:77:44:87:
                    a5:b5
                Exponent: 65537 (0x10001)
        X509v3 extensions:
            X509v3 Basic Constraints: 
                CA:FALSE
            X509v3 Key Usage: 
                Digital Signature, Non Repudiation, Key Encipherment
    Signature Algorithm: sha256WithRSAEncryption
         aa:bc:6e:30:a8:4a:01:02:8a:b4:62:35:6d:e5:1c:59:e4:e5:
         ec:ba:21:de:2d:d1:77:fa:7b:c5:13:05:a0:b2:24:78:44:34:
         f2:1a:13:6d:fb:b7:2c:b1:31:7b:43:05:98:73:6e:47:4b:9a:
         f4:4c:93:13:4d:6c:61:5f:28:04:74:2c:4d:15:97:02:4a:e5:
         3a:33:00:33:cf:95:3f:07:85:0d:4f:3b:f8:77:e9:6c:19:8e:
         3a:4b:2d:e8:10:00:10:72:b6:b8:09:5b:ce:40:d5:39:8c:4a:
         e2:d4:8d:21:e1:59:48:55:ee:ae:16:b1:5e:a1:ad:ff:ed:1c:
         8e:1c:55:2e:fd:69:f3:64:ba:90:3b:c3:9e:af:e0:c9:af:ea:
         92:f6:8f:3f:b8:46:c6:3a:15:cb:3a:6e:c7:8c:92:82:fd:e0:
         90:b3:35:50:87:b9:fa:3c:cd:a5:db:8f:13:69:24:d5:a4:ae:
         06:29:0a:f6:e2:41:1b:94:56:b5:7b:07:02:24:df:3c:f8:69:
         7b:53:ee:b5:0f:42:03:a9:7d:b5:9a:9f:02:c0:53:ee:79:4f:
         16:13:16:b6:00:68:55:3b:27:53:e9:13:17:96:6e:fd:00:06:
         91:5a:b9:48:6f:91:f2:63:44:58:94:a3:fb:10:14:67:7b:ef:
         a5:dc:dc:04
-----BEGIN CERTIFICATE-----
MIIDEzCCAfugAwIBAgIBATANBgkqhkiG9w0BAQsFADA/MQswCQYDVQQGEwJDTjER
MA8GA1UECAwIaGFuZ3pob3UxDDAKBgNVBAoMA0VNUTEPMA0GA1UEAwwGUm9vdENB
MB4XDTIwMDEwODE2MDIwMFoXDTIxMDEwNzE2MDIwMFowPzELMAkGA1UEBhMCQ04x
ETAPBgNVBAgMCGhhbmd6aG91MQwwCgYDVQQKDANFTVExDzANBgNVBAMMBkNsaWVu
dDCCASIwDQYJKoZIhvcNAQEBBQADggEPADCCAQoCggEBAKPSV/wFiBapBdOa22tw
14eJi/ypcUmSUJsRLML1LPsCipwP9ftcnHrLCxs99/839xDhiWYGPaAoDvxjdbjD
1ermap8KQ3HYM3fDvviCROd1FflIqdlsdnENJEOVVPJiqzGVFE2TkkcCAa+XYkrM
+eRXMHXV+yNBN0YkXOPc+pccRr/GT9qg40eE31pnA+pj6e/BOCjo4Z3jttT6FB+B
eWVK/sW8o0MiXV2lcyZRLG9DbzC6j/EpbgpvwnyMJ8N0BvRf7nABraytH95Uj6vA
xX5cEXCCJpsEbnmLMax009Ak19KJn0osk0YFyUP2vF7YVP5LoC5wfL+Eg8Jgd0SH
pbUCAwEAAaMaMBgwCQYDVR0TBAIwADALBgNVHQ8EBAMCBeAwDQYJKoZIhvcNAQEL
BQADggEBAKq8bjCoSgECirRiNW3lHFnk5ey6Id4t0Xf6e8UTBaCyJHhENPIaE237
tyyxMXtDBZhzbkdLmvRMkxNNbGFfKAR0LE0VlwJK5TozADPPlT8HhQ1PO/h36WwZ
jjpLLegQABBytrgJW85A1TmMSuLUjSHhWUhV7q4WsV6hrf/tHI4cVS79afNkupA7
w56v4Mmv6pL2jz+4RsY6Fcs6bseMkoL94JCzNVCHufo8zaXbjxNpJNWkrgYpCvbi
QRuUVrV7BwIk3zz4aXtT7rUPQgOpfbWanwLAU+55TxYTFrYAaFU7J1PpExeWbv0A
BpFauUhvkfJjRFiUo/sQFGd776Xc3AQ=
-----END CERTIFICATE-----
