Certificate:
    Data:
        Version: 3 (0x2)
        Serial Number: 3 (0x3)
    Signature Algorithm: sha256WithRSAEncryption
        Issuer: C=CN, ST=hangzhou, O=EMQ, CN=RootCA
        Validity
            Not Before: Jan  8 16:06:02 2020 GMT
            Not After : Jan  7 16:06:02 2021 GMT
        Subject: C=CN, ST=hangzhou, O=EMQ, CN=SecondCA
        Subject Public Key Info:
            Public Key Algorithm: rsaEncryption
                Public-Key: (2048 bit)
                Modulus:
                    00:ba:9e:e5:66:6d:37:88:7c:9b:dc:ae:41:cd:75:
                    7a:96:ef:dc:7e:1e:55:1d:f8:ec:5c:56:a8:9d:fc:
                    1f:5a:72:6f:42:27:2e:44:63:6e:76:4a:17:f8:44:
                    be:4b:1f:34:3e:d3:12:f1:3b:40:1f:8c:b4:0d:33:
                    fb:2d:fc:eb:38:b5:2f:87:be:8b:2c:35:71:96:18:
                    2f:d7:3f:94:1b:9f:27:ac:1e:be:42:05:1b:7f:c7:
                    bf:b4:f0:a5:f3:5d:08:89:3c:dc:31:d1:14:f9:f8:
                    dd:bd:3d:df:4d:42:79:2f:7f:0f:67:f8:7c:ee:00:
                    8c:ea:42:a7:6b:a3:4c:e0:ca:67:dd:b4:eb:dc:dd:
                    5b:0d:d7:72:2c:fb:eb:02:b1:92:9d:f5:b2:99:03:
                    b0:1d:6c:27:05:0b:0d:15:d3:15:30:ea:4d:00:28:
                    73:43:5f:1b:81:43:ac:40:d8:db:05:89:3e:1a:0a:
                    bc:71:df:64:ca:92:3b:27:bf:9d:d5:b4:8a:17:66:
                    5c:7d:fc:72:9f:52:88:5d:fb:72:8a:b9:a2:d2:6a:
                    2e:8c:0a:cf:16:8d:d0:d5:f2:c7:61:9c:b7:11:94:
                    59:b8:57:e8:f3:90:65:8d:cb:63:2b:5e:47:5b:f2:
                    7c:1d:db:0f:3a:a2:7d:7e:6c:f9:1a:68:a5:81:28:
                    a0:af
                Exponent: 65537 (0x10001)
        X509v3 extensions:
            X509v3 Subject Key Identifier: 
                8F:12:5E:6D:BB:16:2F:DF:6E:8D:F2:0F:FC:31:38:AE:67:53:C0:0C
            X509v3 Authority Key Identifier: 
                keyid:D3:DB:7B:C1:58:C1:36:19:C6:A7:F1:5E:AE:B6:FB:3B:A7:33:35:F7

            X509v3 Basic Constraints: 
                CA:TRUE
    Signature Algorithm: sha256WithRSAEncryption
         05:4f:a0:a6:f5:a5:7e:a0:7e:87:e2:9b:d4:11:f6:d2:88:27:
         d5:a4:7d:38:8d:aa:ff:09:35:b2:8b:d3:fb:67:83:03:d8:8c:
         a5:d5:dd:b2:09:60:2f:5d:38:a3:9d:71:44:62:05:74:17:4f:
         74:9a:bd:1c:d1:b8:88:53:2f:fa:e1:7e:83:ce:28:97:c4:ff:
         fd:61:61:af:06:9c:aa:f0:c6:15:67:67:34:f1:2b:c3:2a:80:
         01:75:a5:71:bc:47:96:ef:ff:b8:01:b7:36:fe:d6:76:24:b0:
         94:a2:e5:3b:96:fe:bb:9d:6b:9a:bc:d6:bb:97:10:61:e8:34:
         ad:4c:04:cb:0b:c0:92:10:0f:0d:0c:4d:5d:b0:86:38:a5:c9:
         51:02:45:12:00:f3:fa:5e:13:1a:73:43:f1:9a:80:ed:26:a3:
         ee:26:81:bd:92:dd:42:ac:4c:8e:76:fb:e2:02:0a:f4:ac:c7:
         2c:a6:ba:08:33:a7:6d:67:ee:dc:a2:c1:ae:bc:af:69:ef:a0:
         02:32:38:94:f4:12:df:75:78:97:6f:d0:88:4e:b3:38:73:57:
         46:1d:a7:cb:fd:31:4d:29:cc:4a:e7:7d:18:73:5c:7b:a9:fa:
         82:c0:1c:27:5c:d4:71:be:4a:e8:6d:cc:21:b4:44:b8:aa:ee:
         e1:22:1e:ba
-----BEGIN CERTIFICATE-----
MIIDSzCCAjOgAwIBAgIBAzANBgkqhkiG9w0BAQsFADA/MQswCQYDVQQGEwJDTjER
MA8GA1UECAwIaGFuZ3pob3UxDDAKBgNVBAoMA0VNUTEPMA0GA1UEAwwGUm9vdENB
MB4XDTIwMDEwODE2MDYwMloXDTIxMDEwNzE2MDYwMlowQTELMAkGA1UEBhMCQ04x
ETAPBgNVBAgMCGhhbmd6aG91MQwwCgYDVQQKDANFTVExETAPBgNVBAMMCFNlY29u
ZENBMIIBIjANBgkqhkiG9w0BAQEFAAOCAQ8AMIIBCgKCAQEAup7lZm03iHyb3K5B
zXV6lu/cfh5VHfjsXFaonfwfWnJvQicuRGNudkoX+ES+Sx80PtMS8TtAH4y0DTP7
LfzrOLUvh76LLDVxlhgv1z+UG58nrB6+QgUbf8e/tPCl810IiTzcMdEU+fjdvT3f
TUJ5L38PZ/h87gCM6kKna6NM4Mpn3bTr3N1bDddyLPvrArGSnfWymQOwHWwnBQsN
FdMVMOpNAChzQ18bgUOsQNjbBYk+Ggq8cd9kypI7J7+d1bSKF2Zcffxyn1KIXfty
irmi0moujArPFo3Q1fLHYZy3EZRZuFfo85BljctjK15HW/J8HdsPOqJ9fmz5Gmil
gSigrwIDAQABo1AwTjAdBgNVHQ4EFgQUjxJebbsWL99ujfIP/DE4rmdTwAwwHwYD
VR0jBBgwFoAU09t7wVjBNhnGp/Ferrb7O6czNfcwDAYDVR0TBAUwAwEB/zANBgkq
hkiG9w0BAQsFAAOCAQEABU+gpvWlfqB+h+Kb1BH20ogn1aR9OI2q/wk1sovT+2eD
A9iMpdXdsglgL104o51xRGIFdBdPdJq9HNG4iFMv+uF+g84ol8T//WFhrwacqvDG
FWdnNPErwyqAAXWlcbxHlu//uAG3Nv7WdiSwlKLlO5b+u51rmrzWu5cQYeg0rUwE
ywvAkhAPDQxNXbCGOKXJUQJFEgDz+l4TGnND8ZqA7Saj7iaBvZLdQqxMjnb74gIK
9KzHLKa6CDOnbWfu3KLBrryvae+gAjI4lPQS33V4l2/QiE6zOHNXRh2ny/0xTSnM
Sud9GHNce6n6gsAcJ1zUcb5K6G3MIbREuKru4SIeug==
-----END CERTIFICATE-----
